target datalayout = "e-m:e-p270:32:32-p271:32:32-p272:64:64-i64:64-i128:128-f80:128-n8:16:32:64-S128"
target triple = "x86_64-pc-linux-gnu"

%struct._capture_file = type { ptr, i32, ptr, ptr, i8, i8, i8, i64, i16, i32, i32, i32, ptr, i32, i64, i32, i32, i32, i32, i8, i32, %struct.nstime_t, i32, ptr, ptr, ptr, i8, i8, i32, ptr, i8, i8, i8, i8, i8, i32, i32, i8, ptr, i32, i32, i8, %struct.packet_provider_data, i32, i32, %struct.epan_column_info, ptr, ptr, ptr, %struct.wtap_rec, %struct.Buffer, ptr, i64, i32 }
%struct.nstime_t = type { i64, i32 }
%struct.packet_provider_data = type { ptr, ptr, ptr, ptr, ptr, ptr }
%struct.epan_column_info = type { ptr, i32, ptr, ptr, ptr, %struct.col_expr_t, i8, ptr }
%struct.col_expr_t = type { ptr, ptr }
%struct.wtap_rec = type { i32, i32, i32, %struct.nstime_t, i32, %struct.nstime_t, i8, %union.anon, ptr, i8, %struct.Buffer, %struct.Buffer }
%union.anon = type { %struct.wtap_packet_header }
%struct.wtap_packet_header = type { i32, i32, i32, i32, %union.wtap_pseudo_header }
%union.wtap_pseudo_header = type { %struct.erf_mc_phdr }
%struct.erf_mc_phdr = type { %struct.erf_phdr, [16 x %struct.erf_ehdr], %union.anon.1 }
%struct.erf_phdr = type { i64, i8, i8, i16, i16, i16 }
%struct.erf_ehdr = type { i64 }
%union.anon.1 = type { i32 }
%struct.Buffer = type { ptr, i64, i64, i64 }
%struct.match_data = type { ptr, i64, ptr, ptr, ptr, i8, i8 }
%struct._proto_node = type { ptr, ptr, ptr, ptr, ptr, ptr, ptr }
%struct.field_info = type { ptr, i32, i32, i32, i32, i32, i32, ptr, ptr, ptr, i32, i32 }
%struct._item_label_t = type { [240 x i8], i64, i64 }

; Function Attrs: inlinehint nounwind null_pointer_is_valid sspstrong uwtable
define internal zeroext i1 @proto_item_is_hidden(ptr noundef %0) #17 {
  %2 = alloca i1, align 1
  %3 = alloca ptr, align 8
  store ptr %0, ptr %3, align 8
  %4 = load ptr, ptr %3, align 8
  %5 = icmp ne ptr %4, null
  br i1 %5, label %6, label %27

6:                                                ; preds = %1
  %7 = load ptr, ptr %3, align 8
  %8 = getelementptr inbounds nuw %struct._proto_node, ptr %7, i32 0, i32 5
  %9 = load ptr, ptr %8, align 8
  %10 = icmp ne ptr %9, null
  br i1 %10, label %11, label %27

11:                                               ; preds = %6
  %12 = load ptr, ptr %3, align 8
  %13 = getelementptr inbounds nuw %struct._proto_node, ptr %12, i32 0, i32 5
  %14 = load ptr, ptr %13, align 8
  %15 = icmp ne ptr %14, null
  br i1 %15, label %16, label %23

16:                                               ; preds = %11
  %17 = load ptr, ptr %3, align 8
  %18 = getelementptr inbounds nuw %struct._proto_node, ptr %17, i32 0, i32 5
  %19 = load ptr, ptr %18, align 8
  %20 = getelementptr inbounds nuw %struct.field_info, ptr %19, i32 0, i32 6
  %21 = load i32, ptr %20, align 4
  %22 = and i32 %21, 1
  br label %24

23:                                               ; preds = %11
  br label %24

24:                                               ; preds = %23, %16
  %25 = phi i32 [ %22, %16 ], [ 0, %23 ]
  %26 = icmp ne i32 %25, 0
  store i1 %26, ptr %2, align 1
  br label %28

27:                                               ; preds = %6, %1
  store i1 true, ptr %2, align 1
  br label %28

28:                                               ; preds = %27, %24
  %29 = load i1, ptr %2, align 1
  ret i1 %29
}

; Function Attrs: null_pointer_is_valid sspstrong uwtable
define internal void @match_subtree_text_reverse(ptr noundef %0, ptr noundef %1) #1 {
  %3 = alloca ptr, align 8
  %4 = alloca ptr, align 8
  %5 = alloca ptr, align 8
  %6 = alloca ptr, align 8
  %7 = alloca i64, align 8
  %8 = alloca ptr, align 8
  %9 = alloca ptr, align 8
  %10 = alloca [240 x i8], align 16
  %11 = alloca ptr, align 8
  %12 = alloca i64, align 8
  %13 = alloca i32, align 4
  %14 = alloca i32, align 4
  %15 = alloca i8, align 1
  %16 = alloca i64, align 8
  %17 = alloca i32, align 4
  store ptr %0, ptr %3, align 8
  store ptr %1, ptr %4, align 8
  call void @llvm.lifetime.start.p0(i64 8, ptr %5) #19
  %18 = load ptr, ptr %4, align 8
  store ptr %18, ptr %5, align 8
  call void @llvm.lifetime.start.p0(i64 8, ptr %6) #19
  %19 = load ptr, ptr %5, align 8
  %20 = getelementptr inbounds nuw %struct.match_data, ptr %19, i32 0, i32 0
  %21 = load ptr, ptr %20, align 8
  store ptr %21, ptr %6, align 8
  call void @llvm.lifetime.start.p0(i64 8, ptr %7) #19
  %22 = load ptr, ptr %5, align 8
  %23 = getelementptr inbounds nuw %struct.match_data, ptr %22, i32 0, i32 1
  %24 = load i64, ptr %23, align 8
  store i64 %24, ptr %7, align 8
  call void @llvm.lifetime.start.p0(i64 8, ptr %8) #19
  %25 = load ptr, ptr %5, align 8
  %26 = getelementptr inbounds nuw %struct.match_data, ptr %25, i32 0, i32 2
  %27 = load ptr, ptr %26, align 8
  store ptr %27, ptr %8, align 8
  call void @llvm.lifetime.start.p0(i64 8, ptr %9) #19
  %28 = load ptr, ptr %3, align 8
  %29 = getelementptr inbounds nuw %struct._proto_node, ptr %28, i32 0, i32 5
  %30 = load ptr, ptr %29, align 8
  store ptr %30, ptr %9, align 8
  call void @llvm.lifetime.start.p0(i64 240, ptr %10) #19
  call void @llvm.lifetime.start.p0(i64 8, ptr %11) #19
  call void @llvm.lifetime.start.p0(i64 8, ptr %12) #19
  call void @llvm.lifetime.start.p0(i64 4, ptr %13) #19
  call void @llvm.lifetime.start.p0(i64 4, ptr %14) #19
  call void @llvm.lifetime.start.p0(i64 1, ptr %15) #19
  call void @llvm.lifetime.start.p0(i64 8, ptr %16) #19
  store i64 0, ptr %16, align 8
  br label %31

31:                                               ; preds = %2
  br label %32

32:                                               ; preds = %31
  br label %33

33:                                               ; preds = %32
  %34 = load ptr, ptr %5, align 8
  %35 = getelementptr inbounds nuw %struct.match_data, ptr %34, i32 0, i32 6
  %36 = load i8, ptr %35, align 1, !range !8, !noundef !9
  %37 = trunc i8 %36 to i1
  br i1 %37, label %38, label %39

38:                                               ; preds = %33
  store i32 1, ptr %17, align 4
  br label %196

39:                                               ; preds = %33
  %40 = load ptr, ptr %3, align 8
  %41 = call zeroext i1 @proto_item_is_hidden(ptr noundef %40)
  br i1 %41, label %42, label %43

42:                                               ; preds = %39
  store i32 1, ptr %17, align 4
  br label %196

43:                                               ; preds = %39
  %44 = load ptr, ptr %5, align 8
  %45 = getelementptr inbounds nuw %struct.match_data, ptr %44, i32 0, i32 4
  %46 = load ptr, ptr %45, align 8
  %47 = icmp ne ptr %46, null
  br i1 %47, label %48, label %57

48:                                               ; preds = %43
  %49 = load ptr, ptr %9, align 8
  %50 = load ptr, ptr %5, align 8
  %51 = getelementptr inbounds nuw %struct.match_data, ptr %50, i32 0, i32 4
  %52 = load ptr, ptr %51, align 8
  %53 = icmp eq ptr %49, %52
  br i1 %53, label %54, label %57

54:                                               ; preds = %48
  %55 = load ptr, ptr %5, align 8
  %56 = getelementptr inbounds nuw %struct.match_data, ptr %55, i32 0, i32 6
  store i8 1, ptr %56, align 1
  store i32 1, ptr %17, align 4
  br label %196

57:                                               ; preds = %48, %43
  %58 = load ptr, ptr %9, align 8
  %59 = getelementptr inbounds nuw %struct.field_info, ptr %58, i32 0, i32 7
  %60 = load ptr, ptr %59, align 8
  %61 = icmp ne ptr %60, null
  br i1 %61, label %62, label %68

62:                                               ; preds = %57
  %63 = load ptr, ptr %9, align 8
  %64 = getelementptr inbounds nuw %struct.field_info, ptr %63, i32 0, i32 7
  %65 = load ptr, ptr %64, align 8
  %66 = getelementptr inbounds nuw %struct._item_label_t, ptr %65, i32 0, i32 0
  %67 = getelementptr inbounds [240 x i8], ptr %66, i64 0, i64 0
  store ptr %67, ptr %11, align 8
  br label %72

68:                                               ; preds = %57
  %69 = getelementptr inbounds [240 x i8], ptr %10, i64 0, i64 0
  store ptr %69, ptr %11, align 8
  %70 = load ptr, ptr %9, align 8
  %71 = getelementptr inbounds [240 x i8], ptr %10, i64 0, i64 0
  call void @proto_item_fill_label(ptr noundef %70, ptr noundef %71, ptr noundef null)
  br label %72

72:                                               ; preds = %68, %62
  %73 = load ptr, ptr %8, align 8
  %74 = getelementptr inbounds nuw %struct._capture_file, ptr %73, i32 0, i32 38
  %75 = load ptr, ptr %74, align 8
  %76 = icmp ne ptr %75, null
  br i1 %76, label %77, label %90

77:                                               ; preds = %72
  %78 = load ptr, ptr %8, align 8
  %79 = getelementptr inbounds nuw %struct._capture_file, ptr %78, i32 0, i32 38
  %80 = load ptr, ptr %79, align 8
  %81 = load ptr, ptr %11, align 8
  %82 = call zeroext i1 @ws_regex_matches(ptr noundef %80, ptr noundef %81)
  br i1 %82, label %83, label %89

83:                                               ; preds = %77
  %84 = load ptr, ptr %5, align 8
  %85 = getelementptr inbounds nuw %struct.match_data, ptr %84, i32 0, i32 5
  store i8 1, ptr %85, align 8
  %86 = load ptr, ptr %9, align 8
  %87 = load ptr, ptr %5, align 8
  %88 = getelementptr inbounds nuw %struct.match_data, ptr %87, i32 0, i32 3
  store ptr %86, ptr %88, align 8
  br label %89

89:                                               ; preds = %83, %77
  br label %187

90:                                               ; preds = %72
  %91 = load ptr, ptr %8, align 8
  %92 = getelementptr inbounds nuw %struct._capture_file, ptr %91, i32 0, i32 37
  %93 = load i8, ptr %92, align 8, !range !8, !noundef !9
  %94 = trunc i8 %93 to i1
  br i1 %94, label %95, label %174

95:                                               ; preds = %90
  %96 = load ptr, ptr %11, align 8
  %97 = call i64 @strlen(ptr noundef %96) #25
  store i64 %97, ptr %12, align 8
  store i32 0, ptr %14, align 4
  store i32 0, ptr %13, align 4
  br label %98

98:                                               ; preds = %170, %95
  %99 = load i32, ptr %13, align 4
  %100 = zext i32 %99 to i64
  %101 = load i64, ptr %12, align 8
  %102 = icmp ult i64 %100, %101
  br i1 %102, label %103, label %173

103:                                              ; preds = %98
  %104 = load i32, ptr %14, align 4
  %105 = icmp eq i32 %104, 0
  br i1 %105, label %106, label %117

106:                                              ; preds = %103
  %107 = load i64, ptr %16, align 8
  %108 = icmp eq i64 %107, 0
  br i1 %108, label %109, label %117

109:                                              ; preds = %106
  %110 = load i64, ptr %12, align 8
  %111 = load i32, ptr %13, align 4
  %112 = zext i32 %111 to i64
  %113 = sub i64 %110, %112
  %114 = load i64, ptr %7, align 8
  %115 = icmp ult i64 %113, %114
  br i1 %115, label %116, label %117

116:                                              ; preds = %109
  br label %173

117:                                              ; preds = %109, %106, %103
  %118 = load ptr, ptr %11, align 8
  %119 = load i32, ptr %13, align 4
  %120 = zext i32 %119 to i64
  %121 = getelementptr i8, ptr %118, i64 %120
  %122 = load i8, ptr %121, align 1
  store i8 %122, ptr %15, align 1
  %123 = load i8, ptr %15, align 1
  %124 = call signext i8 @g_ascii_toupper(i8 noundef signext %123) #26
  store i8 %124, ptr %15, align 1
  %125 = load i64, ptr %16, align 8
  %126 = icmp ugt i64 %125, 0
  br i1 %126, label %127, label %140

127:                                              ; preds = %117
  %128 = load i32, ptr %14, align 4
  %129 = icmp eq i32 %128, 0
  br i1 %129, label %130, label %140

130:                                              ; preds = %127
  %131 = load i8, ptr %15, align 1
  %132 = zext i8 %131 to i32
  %133 = load ptr, ptr %6, align 8
  %134 = getelementptr i8, ptr %133, i64 0
  %135 = load i8, ptr %134, align 1
  %136 = sext i8 %135 to i32
  %137 = icmp eq i32 %132, %136
  br i1 %137, label %138, label %140

138:                                              ; preds = %130
  %139 = load i32, ptr %13, align 4
  store i32 %139, ptr %14, align 4
  br label %140

140:                                              ; preds = %138, %130, %127, %117
  %141 = load i8, ptr %15, align 1
  %142 = zext i8 %141 to i32
  %143 = load ptr, ptr %6, align 8
  %144 = load i64, ptr %16, align 8
  %145 = getelementptr i8, ptr %143, i64 %144
  %146 = load i8, ptr %145, align 1
  %147 = sext i8 %146 to i32
  %148 = icmp eq i32 %142, %147
  br i1 %148, label %149, label %162

149:                                              ; preds = %140
  %150 = load i64, ptr %16, align 8
  %151 = add i64 %150, 1
  store i64 %151, ptr %16, align 8
  %152 = load i64, ptr %16, align 8
  %153 = load i64, ptr %7, align 8
  %154 = icmp eq i64 %152, %153
  br i1 %154, label %155, label %161

155:                                              ; preds = %149
  %156 = load ptr, ptr %5, align 8
  %157 = getelementptr inbounds nuw %struct.match_data, ptr %156, i32 0, i32 5
  store i8 1, ptr %157, align 8
  %158 = load ptr, ptr %9, align 8
  %159 = load ptr, ptr %5, align 8
  %160 = getelementptr inbounds nuw %struct.match_data, ptr %159, i32 0, i32 3
  store ptr %158, ptr %160, align 8
  br label %173

161:                                              ; preds = %149
  br label %169

162:                                              ; preds = %140
  %163 = load i32, ptr %14, align 4
  %164 = icmp ne i32 %163, 0
  br i1 %164, label %165, label %167

165:                                              ; preds = %162
  %166 = load i32, ptr %14, align 4
  store i32 %166, ptr %13, align 4
  store i64 1, ptr %16, align 8
  store i32 0, ptr %14, align 4
  br label %168

167:                                              ; preds = %162
  store i64 0, ptr %16, align 8
  br label %168

168:                                              ; preds = %167, %165
  br label %169

169:                                              ; preds = %168, %161
  br label %170

170:                                              ; preds = %169
  %171 = load i32, ptr %13, align 4
  %172 = add i32 %171, 1
  store i32 %172, ptr %13, align 4
  br label %98, !llvm.loop !23

173:                                              ; preds = %155, %116, %98
  br label %186

174:                                              ; preds = %90
  %175 = load ptr, ptr %11, align 8
  %176 = load ptr, ptr %6, align 8
  %177 = call ptr @strstr(ptr noundef %175, ptr noundef %176) #25
  %178 = icmp ne ptr %177, null
  br i1 %178, label %179, label %185

179:                                              ; preds = %174
  %180 = load ptr, ptr %5, align 8
  %181 = getelementptr inbounds nuw %struct.match_data, ptr %180, i32 0, i32 5
  store i8 1, ptr %181, align 8
  %182 = load ptr, ptr %9, align 8
  %183 = load ptr, ptr %5, align 8
  %184 = getelementptr inbounds nuw %struct.match_data, ptr %183, i32 0, i32 3
  store ptr %182, ptr %184, align 8
  br label %185

185:                                              ; preds = %179, %174
  br label %186

186:                                              ; preds = %185, %173
  br label %187

187:                                              ; preds = %186, %89
  %188 = load ptr, ptr %3, align 8
  %189 = getelementptr inbounds nuw %struct._proto_node, ptr %188, i32 0, i32 0
  %190 = load ptr, ptr %189, align 8
  %191 = icmp ne ptr %190, null
  br i1 %191, label %192, label %195

192:                                              ; preds = %187
  %193 = load ptr, ptr %3, align 8
  %194 = load ptr, ptr %5, align 8
  call void @proto_tree_children_foreach(ptr noundef %193, ptr noundef @match_subtree_text_reverse, ptr noundef %194)
  br label %195

195:                                              ; preds = %192, %187
  store i32 0, ptr %17, align 4
  br label %196

196:                                              ; preds = %195, %54, %42, %38
  call void @llvm.lifetime.end.p0(i64 8, ptr %16) #19
  call void @llvm.lifetime.end.p0(i64 1, ptr %15) #19
  call void @llvm.lifetime.end.p0(i64 4, ptr %14) #19
  call void @llvm.lifetime.end.p0(i64 4, ptr %13) #19
  call void @llvm.lifetime.end.p0(i64 8, ptr %12) #19
  call void @llvm.lifetime.end.p0(i64 8, ptr %11) #19
  call void @llvm.lifetime.end.p0(i64 240, ptr %10) #19
  call void @llvm.lifetime.end.p0(i64 8, ptr %9) #19
  call void @llvm.lifetime.end.p0(i64 8, ptr %8) #19
  call void @llvm.lifetime.end.p0(i64 8, ptr %7) #19
  call void @llvm.lifetime.end.p0(i64 8, ptr %6) #19
  call void @llvm.lifetime.end.p0(i64 8, ptr %5) #19
  %197 = load i32, ptr %17, align 4
  switch i32 %197, label %199 [
    i32 0, label %198
    i32 1, label %198
  ]

198:                                              ; preds = %196, %196
  ret void

199:                                              ; preds = %196
  unreachable
}