; Function Attrs: null_pointer_is_valid sspstrong uwtable
define internal void @match_subtree_text_reverse(ptr noundef %0, ptr noundef %1) #1 {
  %3 = alloca [240 x i8], align 16
  %4 = load ptr, ptr %1, align 8
  %5 = getelementptr inbounds nuw i8, ptr %1, i64 8
  %6 = load i64, ptr %5, align 8
  %7 = getelementptr inbounds nuw i8, ptr %1, i64 16
  %8 = load ptr, ptr %7, align 8
  %9 = getelementptr inbounds nuw i8, ptr %0, i64 40
  %10 = load ptr, ptr %9, align 8
  call void @llvm.lifetime.start.p0(i64 240, ptr nonnull %3) #23
  %11 = getelementptr inbounds nuw i8, ptr %1, i64 41
  %12 = load i8, ptr %11, align 1, !range !9, !noundef !10
  %13 = trunc nuw i8 %12 to i1
  %.not.i = icmp eq ptr %0, null
  %or.cond79 = or i1 %.not.i, %13
  %.not7.i = icmp eq ptr %10, null
  %or.cond80 = select i1 %or.cond79, i1 true, i1 %.not7.i
  br i1 %or.cond80, label %proto_item_is_hidden.exit.thread, label %proto_item_is_hidden.exit

proto_item_is_hidden.exit:                        ; preds = %2
  %14 = getelementptr inbounds nuw i8, ptr %10, i64 28
  %15 = load i32, ptr %14, align 4
  %16 = and i32 %15, 1
  %.not81 = icmp eq i32 %16, 0
  br i1 %.not81, label %17, label %proto_item_is_hidden.exit.thread

17:                                               ; preds = %proto_item_is_hidden.exit
  %18 = getelementptr inbounds nuw i8, ptr %1, i64 32
  %19 = load ptr, ptr %18, align 8
  %.not = icmp ne ptr %19, null
  %20 = icmp eq ptr %10, %19
  %or.cond75 = select i1 %.not, i1 %20, i1 false
  br i1 %or.cond75, label %21, label %22

21:                                               ; preds = %17
  store i8 1, ptr %11, align 1
  br label %proto_item_is_hidden.exit.thread

22:                                               ; preds = %17
  %23 = getelementptr inbounds nuw i8, ptr %10, i64 32
  %24 = load ptr, ptr %23, align 8
  %.not70 = icmp eq ptr %24, null
  br i1 %.not70, label %25, label %26

25:                                               ; preds = %22
  call void @proto_item_fill_label(ptr noundef nonnull %10, ptr noundef nonnull %3, ptr noundef null)
  br label %26

26:                                               ; preds = %22, %25
  %.063 = phi ptr [ %3, %25 ], [ %24, %22 ]
  %27 = getelementptr inbounds nuw i8, ptr %8, i64 200
  %28 = load ptr, ptr %27, align 8
  %.not71 = icmp eq ptr %28, null
  br i1 %.not71, label %31, label %29

29:                                               ; preds = %26
  %30 = call zeroext i1 @ws_regex_matches(ptr noundef nonnull %28, ptr noundef nonnull %.063)
  br i1 %30, label %.loopexit.sink.split, label %.loopexit

31:                                               ; preds = %26
  %32 = getelementptr inbounds nuw i8, ptr %8, i64 192
  %33 = load i8, ptr %32, align 8, !range !9, !noundef !10
  %34 = trunc nuw i8 %33 to i1
  br i1 %34, label %35, label %64

35:                                               ; preds = %31
  %36 = call i64 @strlen(ptr noundef nonnull dereferenceable(1) %.063) #26
  %.not86 = icmp eq i64 %36, 0
  br i1 %.not86, label %.loopexit, label %.lr.ph

.lr.ph:                                           ; preds = %35, %60
  %37 = phi i64 [ %62, %60 ], [ 0, %35 ]
  %.084 = phi i64 [ %.1, %60 ], [ 0, %35 ]
  %.05983 = phi i32 [ %.2, %60 ], [ 0, %35 ]
  %.06182 = phi i32 [ %61, %60 ], [ 0, %35 ]
  %38 = icmp eq i32 %.05983, 0
  %39 = icmp eq i64 %.084, 0
  %or.cond = and i1 %38, %39
  %40 = sub nuw i64 %36, %37
  %41 = icmp ult i64 %40, %6
  %or.cond77 = select i1 %or.cond, i1 %41, i1 false
  br i1 %or.cond77, label %.loopexit, label %42

42:                                               ; preds = %.lr.ph
  %43 = getelementptr i8, ptr %.063, i64 %37
  %44 = load i8, ptr %43, align 1
  %45 = call signext i8 @g_ascii_toupper(i8 noundef signext %44) #28
  %46 = icmp ne i64 %.084, 0
  %or.cond3 = and i1 %38, %46
  %47 = zext i8 %45 to i32
  br i1 %or.cond3, label %48, label %._crit_edge

48:                                               ; preds = %42
  %49 = load i8, ptr %4, align 1
  %50 = sext i8 %49 to i32
  %51 = icmp eq i32 %47, %50
  %spec.select = select i1 %51, i32 %.06182, i32 0
  br label %._crit_edge

._crit_edge:                                      ; preds = %42, %48
  %.160 = phi i32 [ %spec.select, %48 ], [ %.05983, %42 ]
  %52 = getelementptr i8, ptr %4, i64 %.084
  %53 = load i8, ptr %52, align 1
  %54 = sext i8 %53 to i32
  %55 = icmp eq i32 %47, %54
  br i1 %55, label %56, label %59

56:                                               ; preds = %._crit_edge
  %57 = add i64 %.084, 1
  %58 = icmp eq i64 %57, %6
  br i1 %58, label %.loopexit.sink.split, label %60

59:                                               ; preds = %._crit_edge
  %.not73 = icmp ne i32 %.160, 0
  %.061..160 = select i1 %.not73, i32 %.160, i32 %.06182
  %. = zext i1 %.not73 to i64
  br label %60

60:                                               ; preds = %59, %56
  %.162 = phi i32 [ %.06182, %56 ], [ %.061..160, %59 ]
  %.2 = phi i32 [ %.160, %56 ], [ 0, %59 ]
  %.1 = phi i64 [ %57, %56 ], [ %., %59 ]
  %61 = add i32 %.162, 1
  %62 = zext i32 %61 to i64
  %63 = icmp ugt i64 %36, %62
  br i1 %63, label %.lr.ph, label %.loopexit, !llvm.loop !24

64:                                               ; preds = %31
  %65 = call ptr @strstr(ptr noundef nonnull dereferenceable(1) %.063, ptr noundef %4) #26
  %.not72 = icmp eq ptr %65, null
  br i1 %.not72, label %.loopexit, label %.loopexit.sink.split

.loopexit.sink.split:                             ; preds = %56, %64, %29
  %66 = getelementptr inbounds nuw i8, ptr %1, i64 40
  store i8 1, ptr %66, align 8
  %67 = getelementptr inbounds nuw i8, ptr %1, i64 24
  store ptr %10, ptr %67, align 8
  br label %.loopexit

.loopexit:                                        ; preds = %60, %.lr.ph, %.loopexit.sink.split, %35, %64, %29
  %68 = load ptr, ptr %0, align 8
  %.not74 = icmp eq ptr %68, null
  br i1 %.not74, label %proto_item_is_hidden.exit.thread, label %69

69:                                               ; preds = %.loopexit
  call void @proto_tree_children_foreach(ptr noundef %0, ptr noundef nonnull @match_subtree_text_reverse, ptr noundef %1)
  br label %proto_item_is_hidden.exit.thread

proto_item_is_hidden.exit.thread:                 ; preds = %.loopexit, %69, %proto_item_is_hidden.exit, %2, %21
  call void @llvm.lifetime.end.p0(i64 240, ptr nonnull %3) #23
  ret void
}